; Function Attrs: mustprogress nofree nounwind uwtable
define noundef nonnull align 8 dereferenceable(8) ptr @_ZNK32pxrInternal_v0_24__pxrReserved__19HdDataSourceLocator14GetLastElementEv(ptr noundef nonnull readonly align 8 dereferenceable(56) %0) local_unnamed_addr #6 align 2 {
  %2 = getelementptr inbounds nuw i8, ptr %0, i64 48
  %3 = load i32, ptr %2, align 8
  %4 = icmp eq i32 %3, 0
  br i1 %4, label %5, label %12

5:                                                ; preds = %1
  %6 = load atomic i8, ptr @_ZGVZNK32pxrInternal_v0_24__pxrReserved__19HdDataSourceLocator14GetLastElementEvE5empty acquire, align 8
  %7 = icmp eq i8 %6, 0
  br i1 %7, label %8, label %20, !prof !4

8:                                                ; preds = %5
  %9 = tail call i32 @__cxa_guard_acquire(ptr nonnull @_ZGVZNK32pxrInternal_v0_24__pxrReserved__19HdDataSourceLocator14GetLastElementEvE5empty) #19
  %.not = icmp eq i32 %9, 0
  br i1 %.not, label %20, label %10

10:                                               ; preds = %8
  %11 = tail call i32 @__cxa_atexit(ptr nonnull @_ZN32pxrInternal_v0_24__pxrReserved__7TfTokenD2Ev, ptr nonnull @_ZZNK32pxrInternal_v0_24__pxrReserved__19HdDataSourceLocator14GetLastElementEvE5empty, ptr nonnull @__dso_handle) #19
  tail call void @__cxa_guard_release(ptr nonnull @_ZGVZNK32pxrInternal_v0_24__pxrReserved__19HdDataSourceLocator14GetLastElementEvE5empty) #19
  br label %20

12:                                               ; preds = %1
  %13 = getelementptr inbounds nuw i8, ptr %0, i64 52
  %14 = load i32, ptr %13, align 4
  %15 = icmp ult i32 %14, 7
  %16 = load ptr, ptr %0, align 8
  %spec.select.i.i.i = select i1 %15, ptr %0, ptr %16
  %17 = zext i32 %3 to i64
  %18 = getelementptr %"class.pxrInternal_v0_24__pxrReserved__::TfToken", ptr %spec.select.i.i.i, i64 %17
  %19 = getelementptr i8, ptr %18, i64 -8
  br label %20

20:                                               ; preds = %5, %8, %10, %12
  %.0 = phi ptr [ %19, %12 ], [ @_ZZNK32pxrInternal_v0_24__pxrReserved__19HdDataSourceLocator14GetLastElementEvE5empty, %10 ], [ @_ZZNK32pxrInternal_v0_24__pxrReserved__19HdDataSourceLocator14GetLastElementEvE5empty, %8 ], [ @_ZZNK32pxrInternal_v0_24__pxrReserved__19HdDataSourceLocator14GetLastElementEvE5empty, %5 ]
  ret ptr %.0
}